; Function Attrs: nofree norecurse nosync nounwind memory(argmem: readwrite) uwtable
define void @av_md5_final(ptr noundef captures(none) %0, ptr noundef writeonly captures(none) %1) local_unnamed_addr #3 {
  %3 = alloca i64, align 8
  call void @llvm.lifetime.start.p0(i64 8, ptr nonnull %3) #7
  %4 = load i64, ptr %0, align 8, !tbaa !4
  %5 = shl i64 %4, 3
  store i64 %5, ptr %3, align 8, !tbaa !15
  %6 = trunc i64 %4 to i32
  %7 = and i32 %6, 63
  %8 = add i64 %4, 1
  store i64 %8, ptr %0, align 8, !tbaa !4
  %.not.i.not = icmp eq i32 %7, 0
  br i1 %.not.i.not, label %16, label %9

9:                                                ; preds = %2
  %10 = getelementptr inbounds nuw i8, ptr %0, i64 8
  %11 = and i64 %4, 63
  %12 = getelementptr inbounds nuw i8, ptr %10, i64 %11
  store i8 -128, ptr %12, align 1
  %13 = icmp eq i32 %7, 63
  br i1 %13, label %14, label %av_md5_update.exit

14:                                               ; preds = %9
  %15 = getelementptr inbounds nuw i8, ptr %0, i64 72
  tail call fastcc void @body(ptr noundef nonnull %15, ptr noundef nonnull %10, i64 noundef 1)
  br label %16

16:                                               ; preds = %14, %2
  %.041.i = phi i64 [ 0, %14 ], [ 1, %2 ]
  %.0.i = phi ptr [ getelementptr inbounds nuw (i8, ptr @.str, i64 1), %14 ], [ @.str, %2 ]
  %17 = ptrtoint ptr %.0.i to i64
  %18 = and i64 %17, 3
  %.not44.i = icmp eq i64 %18, 0
  br i1 %.not44.i, label %19, label %.loopexit.i

19:                                               ; preds = %16
  %20 = getelementptr inbounds nuw i8, ptr %0, i64 72
  tail call fastcc void @body(ptr noundef nonnull %20, ptr noundef nonnull %.0.i, i64 noundef 0)
  br label %.loopexit.i

.loopexit.i:                                      ; preds = %16, %19
  br i1 %.not.i.not, label %21, label %av_md5_update.exit

21:                                               ; preds = %.loopexit.i
  %22 = getelementptr inbounds nuw i8, ptr %0, i64 8
  tail call void @llvm.memcpy.p0.p0.i64(ptr nonnull align 8 %22, ptr nonnull align 1 %.0.i, i64 %.041.i, i1 false)
  br label %av_md5_update.exit

av_md5_update.exit:                               ; preds = %9, %.loopexit.i, %21
  %23 = load i64, ptr %0, align 8, !tbaa !4
  %24 = and i64 %23, 63
  %.not35 = icmp eq i64 %24, 56
  br i1 %.not35, label %av_md5_update.exit33, label %.lr.ph

.lr.ph:                                           ; preds = %av_md5_update.exit
  %25 = getelementptr inbounds nuw i8, ptr %0, i64 8
  %26 = getelementptr inbounds nuw i8, ptr %0, i64 72
  br label %27

27:                                               ; preds = %.lr.ph, %av_md5_update.exit21
  %28 = phi i64 [ %24, %.lr.ph ], [ %43, %av_md5_update.exit21 ]
  %29 = phi i64 [ %23, %.lr.ph ], [ %42, %av_md5_update.exit21 ]
  %30 = trunc i64 %29 to i32
  %31 = and i32 %30, 63
  %32 = add i64 %29, 1
  store i64 %32, ptr %0, align 8, !tbaa !4
  %.not.i10.not = icmp eq i32 %31, 0
  br i1 %.not.i10.not, label %37, label %33

33:                                               ; preds = %27
  %34 = getelementptr inbounds nuw i8, ptr %25, i64 %28
  store i8 0, ptr %34, align 1
  %35 = icmp eq i32 %31, 63
  br i1 %35, label %36, label %av_md5_update.exit21

36:                                               ; preds = %33
  tail call fastcc void @body(ptr noundef nonnull %26, ptr noundef nonnull %25, i64 noundef 1)
  br label %37

37:                                               ; preds = %36, %27
  %.041.i11 = phi i64 [ 0, %36 ], [ 1, %27 ]
  %.0.i12 = phi ptr [ getelementptr inbounds nuw (i8, ptr @.str.1, i64 1), %36 ], [ @.str.1, %27 ]
  %38 = ptrtoint ptr %.0.i12 to i64
  %39 = and i64 %38, 3
  %.not44.i13 = icmp eq i64 %39, 0
  br i1 %.not44.i13, label %40, label %.loopexit.i18

40:                                               ; preds = %37
  tail call fastcc void @body(ptr noundef nonnull %26, ptr noundef nonnull %.0.i12, i64 noundef 0)
  br label %.loopexit.i18

.loopexit.i18:                                    ; preds = %37, %40
  br i1 %.not.i10.not, label %41, label %av_md5_update.exit21

41:                                               ; preds = %.loopexit.i18
  tail call void @llvm.memcpy.p0.p0.i64(ptr nonnull align 8 %25, ptr nonnull align 1 %.0.i12, i64 %.041.i11, i1 false)
  br label %av_md5_update.exit21

av_md5_update.exit21:                             ; preds = %33, %.loopexit.i18, %41
  %42 = load i64, ptr %0, align 8, !tbaa !4
  %43 = and i64 %42, 63
  %.not = icmp eq i64 %43, 56
  br i1 %.not, label %av_md5_update.exit33, label %27, !llvm.loop !16

av_md5_update.exit33:                             ; preds = %av_md5_update.exit21, %av_md5_update.exit
  %.lcssa34 = phi i64 [ %23, %av_md5_update.exit ], [ %42, %av_md5_update.exit21 ]
  %44 = add i64 %.lcssa34, 8
  store i64 %44, ptr %0, align 8, !tbaa !4
  %45 = getelementptr inbounds nuw i8, ptr %0, i64 8
  %46 = getelementptr inbounds nuw i8, ptr %0, i64 64
  store i64 %5, ptr %46, align 1
  %47 = getelementptr inbounds nuw i8, ptr %0, i64 72
  tail call fastcc void @body(ptr noundef nonnull %47, ptr noundef nonnull %45, i64 noundef 1)
  %48 = getelementptr inbounds nuw i8, ptr %3, i64 8
  call fastcc void @body(ptr noundef nonnull %47, ptr noundef nonnull %48, i64 noundef 0)
  br label %49

49:                                               ; preds = %av_md5_update.exit33, %49
  %indvars.iv = phi i64 [ 0, %av_md5_update.exit33 ], [ %indvars.iv.next, %49 ]
  %50 = sub nuw nsw i64 3, %indvars.iv
  %51 = getelementptr inbounds nuw [4 x i32], ptr %47, i64 0, i64 %50
  %52 = load i32, ptr %51, align 4, !tbaa !9
  %53 = shl nuw nsw i64 %indvars.iv, 2
  %54 = getelementptr inbounds nuw i8, ptr %1, i64 %53
  store i32 %52, ptr %54, align 1, !tbaa !13
  %indvars.iv.next = add nuw nsw i64 %indvars.iv, 1
  %exitcond.not = icmp eq i64 %indvars.iv.next, 4
  br i1 %exitcond.not, label %55, label %49, !llvm.loop !17

55:                                               ; preds = %49
  call void @llvm.lifetime.end.p0(i64 8, ptr nonnull %3) #7
  ret void
}